; Function Attrs: uwtable
define range(i32 -4, 1) i32 @faiss_IndexLSH_new_with_options(ptr noundef writeonly captures(none) %0, i64 noundef %1, i32 noundef %2, i32 noundef %3, i32 noundef %4) local_unnamed_addr #7 personality ptr @__gxx_personality_v0 {
  %6 = alloca %"class.std::__exception_ptr::exception_ptr", align 8
  %7 = alloca %"class.std::__exception_ptr::exception_ptr", align 8
  %8 = alloca %"class.std::__exception_ptr::exception_ptr", align 8
  %9 = alloca %"class.std::__exception_ptr::exception_ptr", align 8
  %10 = alloca %"class.std::runtime_error", align 8
  %11 = alloca %"class.std::__exception_ptr::exception_ptr", align 8
  %12 = alloca %"class.std::exception", align 8
  %13 = alloca %"class.std::__exception_ptr::exception_ptr", align 8
  %14 = alloca %"class.faiss::FaissException", align 8
  %15 = invoke noalias noundef nonnull dereferenceable(184) ptr @_Znwm(i64 noundef 184) #21
          to label %16 unwind label %20

16:                                               ; preds = %5
  %17 = icmp ne i32 %3, 0
  %18 = icmp ne i32 %4, 0
  invoke void @_ZN5faiss8IndexLSHC1Elibb(ptr noundef nonnull align 8 dereferenceable(184) %15, i64 noundef %1, i32 noundef %2, i1 noundef zeroext %17, i1 noundef zeroext %18)
          to label %19 unwind label %22

19:                                               ; preds = %16
  store ptr %15, ptr %0, align 8, !tbaa !35
  br label %56

20:                                               ; preds = %5
  %21 = landingpad { ptr, i32 }
          catch ptr @_ZTIN5faiss14FaissExceptionE
          catch ptr @_ZTISt9exception
          catch ptr null
  br label %24

22:                                               ; preds = %16
  %23 = landingpad { ptr, i32 }
          catch ptr @_ZTIN5faiss14FaissExceptionE
          catch ptr @_ZTISt9exception
          catch ptr null
  tail call void @_ZdlPvm(ptr noundef nonnull %15, i64 noundef 184) #22
  br label %24

24:                                               ; preds = %22, %20
  %.pn = phi { ptr, i32 } [ %23, %22 ], [ %21, %20 ]
  %.013 = extractvalue { ptr, i32 } %.pn, 0
  %.014 = extractvalue { ptr, i32 } %.pn, 1
  %25 = tail call i32 @llvm.eh.typeid.for.p0(ptr nonnull @_ZTIN5faiss14FaissExceptionE) #20
  %26 = icmp eq i32 %.014, %25
  br i1 %26, label %27, label %35

27:                                               ; preds = %24
  %28 = tail call ptr @__cxa_begin_catch(ptr %.013) #20
  call void @llvm.lifetime.start.p0(i64 8, ptr nonnull %13) #20
  invoke void @_ZN5faiss14FaissExceptionC2ERKS0_(ptr noundef nonnull align 8 dereferenceable(40) %14, ptr noundef nonnull align 8 dereferenceable(40) %28)
          to label %29 unwind label %54

29:                                               ; preds = %27
  call void @_ZSt18make_exception_ptrIN5faiss14FaissExceptionEENSt15__exception_ptr13exception_ptrET_(ptr dead_on_unwind nonnull writable sret(%"class.std::__exception_ptr::exception_ptr") align 8 %13, ptr noundef nonnull %14) #20
  %.not.i = icmp eq ptr @_ZTH20faiss_last_exception, null
  br i1 %.not.i, label %_ZTW20faiss_last_exception.exit, label %30

30:                                               ; preds = %29
  call void @_ZTH20faiss_last_exception()
  br label %_ZTW20faiss_last_exception.exit

_ZTW20faiss_last_exception.exit:                  ; preds = %29, %30
  %31 = call noundef align 8 ptr @llvm.threadlocal.address.p0(ptr align 8 @faiss_last_exception)
  call void @llvm.lifetime.start.p0(i64 8, ptr nonnull %8) #20
  %32 = load ptr, ptr %13, align 8, !tbaa !37
  store ptr null, ptr %13, align 8, !tbaa !37
  %33 = load ptr, ptr %31, align 8, !tbaa !37
  store ptr %33, ptr %8, align 8, !tbaa !37
  store ptr %32, ptr %31, align 8, !tbaa !37
  %.not.i.i = icmp eq ptr %33, null
  br i1 %.not.i.i, label %_ZNSt15__exception_ptr13exception_ptraSEOS0_.exit.thread, label %_ZNSt15__exception_ptr13exception_ptraSEOS0_.exit

_ZNSt15__exception_ptr13exception_ptraSEOS0_.exit.thread: ; preds = %_ZTW20faiss_last_exception.exit
  call void @llvm.lifetime.end.p0(i64 8, ptr nonnull %8) #20
  br label %_ZNSt15__exception_ptr13exception_ptrD2Ev.exit

_ZNSt15__exception_ptr13exception_ptraSEOS0_.exit: ; preds = %_ZTW20faiss_last_exception.exit
  call void @_ZNSt15__exception_ptr13exception_ptr10_M_releaseEv(ptr noundef nonnull align 8 dereferenceable(8) %8) #20
  %.pr = load ptr, ptr %13, align 8, !tbaa !37
  call void @llvm.lifetime.end.p0(i64 8, ptr nonnull %8) #20
  %.not.i19 = icmp eq ptr %.pr, null
  br i1 %.not.i19, label %_ZNSt15__exception_ptr13exception_ptrD2Ev.exit, label %34

34:                                               ; preds = %_ZNSt15__exception_ptr13exception_ptraSEOS0_.exit
  call void @_ZNSt15__exception_ptr13exception_ptr10_M_releaseEv(ptr noundef nonnull align 8 dereferenceable(8) %13) #20
  br label %_ZNSt15__exception_ptr13exception_ptrD2Ev.exit

_ZNSt15__exception_ptr13exception_ptrD2Ev.exit:   ; preds = %_ZNSt15__exception_ptr13exception_ptraSEOS0_.exit.thread, %_ZNSt15__exception_ptr13exception_ptraSEOS0_.exit, %34
  call void @_ZN5faiss14FaissExceptionD2Ev(ptr noundef nonnull align 8 dereferenceable(40) %14) #20
  call void @llvm.lifetime.end.p0(i64 8, ptr nonnull %13) #20
  call void @__cxa_end_catch()
  br label %56

35:                                               ; preds = %24
  %36 = tail call i32 @llvm.eh.typeid.for.p0(ptr nonnull @_ZTISt9exception) #20
  %37 = icmp eq i32 %.014, %36
  %38 = tail call ptr @__cxa_begin_catch(ptr %.013) #20
  br i1 %37, label %39, label %45

39:                                               ; preds = %35
  call void @llvm.lifetime.start.p0(i64 8, ptr nonnull %11) #20
  store ptr getelementptr inbounds nuw inrange(-16, 24) (i8, ptr @_ZTVSt9exception, i64 16), ptr %12, align 8, !tbaa !3
  call void @_ZSt18make_exception_ptrISt9exceptionENSt15__exception_ptr13exception_ptrET_(ptr dead_on_unwind nonnull writable sret(%"class.std::__exception_ptr::exception_ptr") align 8 %11, ptr noundef nonnull %12) #20
  %.not.i20 = icmp eq ptr @_ZTH20faiss_last_exception, null
  br i1 %.not.i20, label %_ZTW20faiss_last_exception.exit21, label %40

40:                                               ; preds = %39
  call void @_ZTH20faiss_last_exception()
  br label %_ZTW20faiss_last_exception.exit21

_ZTW20faiss_last_exception.exit21:                ; preds = %39, %40
  %41 = call noundef align 8 ptr @llvm.threadlocal.address.p0(ptr align 8 @faiss_last_exception)
  call void @llvm.lifetime.start.p0(i64 8, ptr nonnull %7) #20
  %42 = load ptr, ptr %11, align 8, !tbaa !37
  store ptr null, ptr %11, align 8, !tbaa !37
  %43 = load ptr, ptr %41, align 8, !tbaa !37
  store ptr %43, ptr %7, align 8, !tbaa !37
  store ptr %42, ptr %41, align 8, !tbaa !37
  %.not.i.i22 = icmp eq ptr %43, null
  br i1 %.not.i.i22, label %_ZNSt15__exception_ptr13exception_ptraSEOS0_.exit23.thread, label %_ZNSt15__exception_ptr13exception_ptraSEOS0_.exit23

_ZNSt15__exception_ptr13exception_ptraSEOS0_.exit23.thread: ; preds = %_ZTW20faiss_last_exception.exit21
  call void @llvm.lifetime.end.p0(i64 8, ptr nonnull %7) #20
  br label %_ZNSt15__exception_ptr13exception_ptrD2Ev.exit25

_ZNSt15__exception_ptr13exception_ptraSEOS0_.exit23: ; preds = %_ZTW20faiss_last_exception.exit21
  call void @_ZNSt15__exception_ptr13exception_ptr10_M_releaseEv(ptr noundef nonnull align 8 dereferenceable(8) %7) #20
  %.pr33 = load ptr, ptr %11, align 8, !tbaa !37
  call void @llvm.lifetime.end.p0(i64 8, ptr nonnull %7) #20
  %.not.i24 = icmp eq ptr %.pr33, null
  br i1 %.not.i24, label %_ZNSt15__exception_ptr13exception_ptrD2Ev.exit25, label %44

44:                                               ; preds = %_ZNSt15__exception_ptr13exception_ptraSEOS0_.exit23
  call void @_ZNSt15__exception_ptr13exception_ptr10_M_releaseEv(ptr noundef nonnull align 8 dereferenceable(8) %11) #20
  br label %_ZNSt15__exception_ptr13exception_ptrD2Ev.exit25

_ZNSt15__exception_ptr13exception_ptrD2Ev.exit25: ; preds = %_ZNSt15__exception_ptr13exception_ptraSEOS0_.exit23.thread, %_ZNSt15__exception_ptr13exception_ptraSEOS0_.exit23, %44
  call void @_ZNSt9exceptionD1Ev(ptr noundef nonnull align 8 dereferenceable(8) %12) #20
  call void @llvm.lifetime.end.p0(i64 8, ptr nonnull %11) #20
  call void @__cxa_end_catch()
  br label %56

45:                                               ; preds = %35
  call void @llvm.lifetime.start.p0(i64 8, ptr nonnull %9) #20
  invoke void @_ZNSt13runtime_errorC1EPKc(ptr noundef nonnull align 8 dereferenceable(16) %10, ptr noundef nonnull @.str)
          to label %46 unwind label %52

46:                                               ; preds = %45
  call void @_ZSt18make_exception_ptrISt13runtime_errorENSt15__exception_ptr13exception_ptrET_(ptr dead_on_unwind nonnull writable sret(%"class.std::__exception_ptr::exception_ptr") align 8 %9, ptr noundef nonnull %10) #20
  %.not.i26 = icmp eq ptr @_ZTH20faiss_last_exception, null
  br i1 %.not.i26, label %_ZTW20faiss_last_exception.exit27, label %47

47:                                               ; preds = %46
  call void @_ZTH20faiss_last_exception()
  br label %_ZTW20faiss_last_exception.exit27

_ZTW20faiss_last_exception.exit27:                ; preds = %46, %47
  %48 = call noundef align 8 ptr @llvm.threadlocal.address.p0(ptr align 8 @faiss_last_exception)
  call void @llvm.lifetime.start.p0(i64 8, ptr nonnull %6) #20
  %49 = load ptr, ptr %9, align 8, !tbaa !37
  store ptr null, ptr %9, align 8, !tbaa !37
  %50 = load ptr, ptr %48, align 8, !tbaa !37
  store ptr %50, ptr %6, align 8, !tbaa !37
  store ptr %49, ptr %48, align 8, !tbaa !37
  %.not.i.i28 = icmp eq ptr %50, null
  br i1 %.not.i.i28, label %_ZNSt15__exception_ptr13exception_ptraSEOS0_.exit29.thread, label %_ZNSt15__exception_ptr13exception_ptraSEOS0_.exit29

_ZNSt15__exception_ptr13exception_ptraSEOS0_.exit29.thread: ; preds = %_ZTW20faiss_last_exception.exit27
  call void @llvm.lifetime.end.p0(i64 8, ptr nonnull %6) #20
  br label %_ZNSt15__exception_ptr13exception_ptrD2Ev.exit31

_ZNSt15__exception_ptr13exception_ptraSEOS0_.exit29: ; preds = %_ZTW20faiss_last_exception.exit27
  call void @_ZNSt15__exception_ptr13exception_ptr10_M_releaseEv(ptr noundef nonnull align 8 dereferenceable(8) %6) #20
  %.pr35 = load ptr, ptr %9, align 8, !tbaa !37
  call void @llvm.lifetime.end.p0(i64 8, ptr nonnull %6) #20
  %.not.i30 = icmp eq ptr %.pr35, null
  br i1 %.not.i30, label %_ZNSt15__exception_ptr13exception_ptrD2Ev.exit31, label %51

51:                                               ; preds = %_ZNSt15__exception_ptr13exception_ptraSEOS0_.exit29
  call void @_ZNSt15__exception_ptr13exception_ptr10_M_releaseEv(ptr noundef nonnull align 8 dereferenceable(8) %9) #20
  br label %_ZNSt15__exception_ptr13exception_ptrD2Ev.exit31

_ZNSt15__exception_ptr13exception_ptrD2Ev.exit31: ; preds = %_ZNSt15__exception_ptr13exception_ptraSEOS0_.exit29.thread, %_ZNSt15__exception_ptr13exception_ptraSEOS0_.exit29, %51
  call void @_ZNSt13runtime_errorD1Ev(ptr noundef nonnull align 8 dereferenceable(16) %10) #20
  call void @llvm.lifetime.end.p0(i64 8, ptr nonnull %9) #20
  call void @__cxa_end_catch()
  br label %56

52:                                               ; preds = %45
  %53 = landingpad { ptr, i32 }
          cleanup
  call void @llvm.lifetime.end.p0(i64 8, ptr nonnull %9) #20
  invoke void @__cxa_end_catch()
          to label %57 unwind label %58

54:                                               ; preds = %27
  %55 = landingpad { ptr, i32 }
          cleanup
  call void @llvm.lifetime.end.p0(i64 8, ptr nonnull %13) #20
  invoke void @__cxa_end_catch()
          to label %57 unwind label %58

56:                                               ; preds = %19, %_ZNSt15__exception_ptr13exception_ptrD2Ev.exit31, %_ZNSt15__exception_ptr13exception_ptrD2Ev.exit25, %_ZNSt15__exception_ptr13exception_ptrD2Ev.exit
  %.0 = phi i32 [ 0, %19 ], [ -2, %_ZNSt15__exception_ptr13exception_ptrD2Ev.exit ], [ -4, %_ZNSt15__exception_ptr13exception_ptrD2Ev.exit25 ], [ -1, %_ZNSt15__exception_ptr13exception_ptrD2Ev.exit31 ]
  ret i32 %.0

57:                                               ; preds = %54, %52
  %.pn17 = phi { ptr, i32 } [ %53, %52 ], [ %55, %54 ]
  resume { ptr, i32 } %.pn17

58:                                               ; preds = %54, %52
  %59 = landingpad { ptr, i32 }
          catch ptr null
  %60 = extractvalue { ptr, i32 } %59, 0
  call void @__clang_call_terminate(ptr %60) #23
  unreachable
}